#include <math.h>
#include <stdio.h>
#include <stdlib.h>
#include <string.h>

int main()
{
    int y,m,d,j;
    scanf("%d %d %d",&y,&m,&d);
    if(y%4==0)
    {
              if(y%100==0)
              {
                          if(y%400==0)
                          j=1;
                          else
                          j=0;
              }
              else
              j=1;
              
    }
    else
    j=0;
    if(j==1)
    {      switch(m)
           {case 1:printf("%d",d);break;
           case 2:printf("%d",d+31);break;
           case 3:printf("%d",d+60);break;
           case 4:printf("%d",d+91);break;
           case 5:printf("%d",d+121);break;
           case 6:printf("%d",d+152);break;
           case 7:printf("%d",d+182);break;
           case 8:printf("%d",d+213);break;
           case 9:printf("%d",d+244);break;
           case 10:printf("%d",d+274);break;
           case 11:printf("%d",d+305);break;
           case 12:printf("%d",d+335);break;
           }
} 


 
    if(j==0)
    {switch(m)
           {case 1:printf("%d",d);break;
           case 2:printf("%d",d+31);break;
           case 3:printf("%d",d+59);break;
           case 4:printf("%d",d+90);break;
           case 5:printf("%d",d+120);break;
           case 6:printf("%d",d+151);break;
           case 7:printf("%d",d+181);break;
           case 8:printf("%d",d+212);break;
           case 9:printf("%d",d+243);break;
           case 10:printf("%d",d+273);break;
           case 11:printf("%d",d+304);break;
           case 12:printf("%d",d+334);break;
           }
}
           
getchar();
getchar();
    
    

}